TN:
SF:/Users/roma/QtProjects/Chat/Frontend/include/DataInputService.h
FNL:0,12,17
FNA:0,4,_ZN16ValidationResultC1EOS_
FNA:0,4,_ZN16ValidationResultC2EOS_
FNA:0,48,_ZN16ValidationResultD1Ev
FNA:0,48,_ZN16ValidationResultD2Ev
FNA:0,9,_ZN16ValidationResultaSEOS_
FNL:1,17,29
FNA:1,33,_ZN6ConfigC1Ev
FNA:1,33,_ZN6ConfigC2Ev
FNA:1,33,_ZN6ConfigD1Ev
FNA:1,33,_ZN6ConfigD2Ev
FNF:2
FNH:2
DA:17,33
DA:18,33
DA:19,33
DA:21,33
DA:22,33
DA:24,33
DA:25,33
DA:27,33
DA:28,33
DA:29,33
LF:10
LH:10
end_of_record
TN:
SF:/Users/roma/QtProjects/Chat/Frontend/include/JsonService.h
FNL:0,17,31
FNA:0,20,_ZN11JsonService19getUserFromResponseERK11QJsonObject
FNL:1,33,56
FNA:1,3,_ZN11JsonService18getMessageFromJsonERK11QJsonObject
FNL:2,58,80
FNA:2,2,_ZN11JsonService15getChatFromJsonERK11QJsonObject
FNL:3,82,89
FNA:3,1,_ZN11JsonService22getPrivateChatFromJsonERK11QJsonObject
FNF:4
FNH:4
DA:17,20
DA:18,20
DA:19,20
DA:20,20
DA:21,20
DA:22,20
DA:23,20
DA:25,40
DA:26,20
DA:27,20
DA:28,20
DA:29,20
DA:30,20
DA:31,20
DA:33,3
DA:34,21
DA:35,3
DA:36,3
DA:37,3
DA:38,3
DA:39,3
DA:56,0
DA:58,2
DA:59,2
DA:61,2
DA:62,2
DA:63,2
DA:64,2
DA:65,2
DA:66,2
DA:67,2
DA:68,2
DA:69,2
DA:70,2
DA:71,0
DA:72,0
DA:73,0
DA:74,0
DA:75,0
DA:76,0
DA:77,0
DA:78,0
DA:79,0
DA:80,2
DA:82,1
DA:83,1
DA:84,1
DA:85,1
DA:86,1
DA:87,1
DA:88,1
DA:89,1
LF:52
LH:42
end_of_record
TN:
SF:/Users/roma/QtProjects/Chat/Frontend/include/MessageListView.h
FNL:0,11,14
FNA:0,0,_ZN15MessageListViewD0Ev
FNA:0,0,_ZN15MessageListViewD1Ev
FNA:0,0,_ZN15MessageListViewD2Ev
FNL:1,14,14
FNA:1,0,_ZN15MessageListViewC1EP7QWidget
FNA:1,0,_ZN15MessageListViewC2EP7QWidget
FNL:2,15,26
FNA:2,0,_ZZN15MessageListViewC1EP7QWidgetENKUliE_clEi
FNF:3
FNH:0
DA:14,0
DA:15,0
DA:16,0
DA:17,0
DA:18,0
DA:19,0
DA:21,0
DA:22,0
DA:23,0
DA:24,0
DA:25,0
DA:26,0
LF:12
LH:0
end_of_record
TN:
SF:/Users/roma/QtProjects/Chat/Frontend/include/dto/ChatBase.h
FNL:0,21
FNA:0,3,_ZN11PrivateChatC1Ev
FNA:0,3,_ZN11PrivateChatC2Ev
FNA:0,0,_ZN11PrivateChatD0Ev
FNA:0,3,_ZN11PrivateChatD1Ev
FNA:0,3,_ZN11PrivateChatD2Ev
FNL:1,26,26
FNA:1,0,_ZNK11PrivateChat9isPrivateEv
FNL:2,29,30
FNA:2,0,_ZN9GroupChatC1Ev
FNA:2,0,_ZN9GroupChatC2Ev
FNA:2,0,_ZN9GroupChatD0Ev
FNA:2,0,_ZN9GroupChatD1Ev
FNA:2,0,_ZN9GroupChatD2Ev
FNL:3,35,35
FNA:3,0,_ZNK9GroupChat9isPrivateEv
FNL:4,38,38
FNA:4,3,_ZN8ChatBaseD2Ev
FNL:5,9,13
FNA:5,3,_ZN8ChatBaseC2Ev
FNF:6
FNH:3
DA:9,3
DA:13,3
DA:26,0
DA:29,0
DA:30,0
DA:35,0
DA:38,3
LF:7
LH:3
end_of_record
TN:
SF:/Users/roma/QtProjects/Chat/Frontend/include/dto/DrawData.h
FNL:0,20,20
FNA:0,0,_ZN12UserDrawDataC1Ev
FNA:0,0,_ZN12UserDrawDataC2Ev
FNA:0,0,_ZN12UserDrawDataD1Ev
FNA:0,0,_ZN12UserDrawDataD2Ev
FNL:1,26
FNA:1,0,_ZN12ChatDrawDataC1Ev
FNA:1,0,_ZN12ChatDrawDataC2Ev
FNA:1,0,_ZN12ChatDrawDataD1Ev
FNA:1,0,_ZN12ChatDrawDataD2Ev
FNL:2,8,20
FNA:2,0,_ZN15MessageDrawDataC1Ev
FNA:2,0,_ZN15MessageDrawDataC2Ev
FNA:2,0,_ZN15MessageDrawDataD1Ev
FNA:2,0,_ZN15MessageDrawDataD2Ev
FNF:3
FNH:0
DA:20,0
LF:1
LH:0
end_of_record
TN:
SF:/Users/roma/QtProjects/Chat/Frontend/include/dto/User.h
FNL:0,6,11
FNA:0,128,_ZN4UserC1EOS_
FNA:0,104,_ZN4UserC1ERKS_
FNA:0,20,_ZN4UserC1Ev
FNA:0,128,_ZN4UserC2EOS_
FNA:0,104,_ZN4UserC2ERKS_
FNA:0,20,_ZN4UserC2Ev
FNA:0,274,_ZN4UserD1Ev
FNA:0,274,_ZN4UserD2Ev
FNA:0,0,_ZN4UseraSEOS_
FNA:0,0,_ZN4UseraSERKS_
FNF:1
FNH:1
DA:6,20
DA:11,20
LF:2
LH:2
end_of_record
TN:
SF:/Users/roma/QtProjects/Chat/Frontend/include/interfaces/ISocket.h
FNL:0,11,11
FNA:0,0,_ZN7ISocketD0Ev
FNA:0,0,_ZN7ISocketD1Ev
FNA:0,3,_ZN7ISocketD2Ev
FNL:1,7,11
FNA:1,3,_ZN7ISocketC2Ev
FNF:2
FNH:2
DA:11,3
LF:1
LH:1
end_of_record
TN:
SF:/Users/roma/QtProjects/Chat/Frontend/include/managers/BaseManager.h
FNL:0,24,30
FNA:0,7,_ZN11BaseManager22handleReplyWithTimeoutI5QListI4UserEZN11UserManager14findUsersByTagERK7QStringE3$_0EE7QFutureIT_EP13QNetworkReplyT0_iRKSA_
FNA:0,5,_ZN11BaseManager22handleReplyWithTimeoutI5QListI7MessageEZN14MessageManager15getChatMessagesERK7QStringiiiE3$_0EE7QFutureIT_EP13QNetworkReplyT0_iRKSA_
FNA:0,5,_ZN11BaseManager22handleReplyWithTimeoutI5QListINSt3__110shared_ptrI8ChatBaseEEEZN11ChatManager9loadChatsERK7QStringE3$_0EE7QFutureIT_EP13QNetworkReplyT0_iRKSD_
FNA:0,5,_ZN11BaseManager22handleReplyWithTimeoutINSt3__110shared_ptrI8ChatBaseEEZN11ChatManager17createPrivateChatERK7QStringiE3$_0EE7QFutureIT_EP13QNetworkReplyT0_iRKSB_
FNA:0,4,_ZN11BaseManager22handleReplyWithTimeoutINSt3__110shared_ptrI8ChatBaseEEZN11ChatManager8loadChatERK7QStringiE3$_0EE7QFutureIT_EP13QNetworkReplyT0_iRKSB_
FNA:0,8,_ZN11BaseManager22handleReplyWithTimeoutINSt3__18optionalI4UserEEZN11UserManager7getUserEiE3$_0EE7QFutureIT_EP13QNetworkReplyT0_iRKS8_
FNL:1,32,45
FNA:1,4,_ZZN11BaseManager22handleReplyWithTimeoutI5QListI4UserEZN11UserManager14findUsersByTagERK7QStringE3$_0EE7QFutureIT_EP13QNetworkReplyT0_iRKSA_ENKUlvE_clEv
FNA:1,7,_ZZN11BaseManager22handleReplyWithTimeoutI5QListI4UserEZN11UserManager14findUsersByTagERK7QStringE3$_0EE7QFutureIT_EP13QNetworkReplyT0_iRKSA_ENUlvE_C1EOSH_
FNA:1,7,_ZZN11BaseManager22handleReplyWithTimeoutI5QListI4UserEZN11UserManager14findUsersByTagERK7QStringE3$_0EE7QFutureIT_EP13QNetworkReplyT0_iRKSA_ENUlvE_C2EOSH_
FNA:1,14,_ZZN11BaseManager22handleReplyWithTimeoutI5QListI4UserEZN11UserManager14findUsersByTagERK7QStringE3$_0EE7QFutureIT_EP13QNetworkReplyT0_iRKSA_ENUlvE_D1Ev
FNA:1,14,_ZZN11BaseManager22handleReplyWithTimeoutI5QListI4UserEZN11UserManager14findUsersByTagERK7QStringE3$_0EE7QFutureIT_EP13QNetworkReplyT0_iRKSA_ENUlvE_D2Ev
FNA:1,1,_ZZN11BaseManager22handleReplyWithTimeoutI5QListI7MessageEZN14MessageManager15getChatMessagesERK7QStringiiiE3$_0EE7QFutureIT_EP13QNetworkReplyT0_iRKSA_ENKUlvE_clEv
FNA:1,5,_ZZN11BaseManager22handleReplyWithTimeoutI5QListI7MessageEZN14MessageManager15getChatMessagesERK7QStringiiiE3$_0EE7QFutureIT_EP13QNetworkReplyT0_iRKSA_ENUlvE_C1EOSH_
FNA:1,5,_ZZN11BaseManager22handleReplyWithTimeoutI5QListI7MessageEZN14MessageManager15getChatMessagesERK7QStringiiiE3$_0EE7QFutureIT_EP13QNetworkReplyT0_iRKSA_ENUlvE_C2EOSH_
FNA:1,10,_ZZN11BaseManager22handleReplyWithTimeoutI5QListI7MessageEZN14MessageManager15getChatMessagesERK7QStringiiiE3$_0EE7QFutureIT_EP13QNetworkReplyT0_iRKSA_ENUlvE_D1Ev
FNA:1,10,_ZZN11BaseManager22handleReplyWithTimeoutI5QListI7MessageEZN14MessageManager15getChatMessagesERK7QStringiiiE3$_0EE7QFutureIT_EP13QNetworkReplyT0_iRKSA_ENUlvE_D2Ev
FNA:1,1,_ZZN11BaseManager22handleReplyWithTimeoutI5QListINSt3__110shared_ptrI8ChatBaseEEEZN11ChatManager9loadChatsERK7QStringE3$_0EE7QFutureIT_EP13QNetworkReplyT0_iRKSD_ENKUlvE_clEv
FNA:1,5,_ZZN11BaseManager22handleReplyWithTimeoutI5QListINSt3__110shared_ptrI8ChatBaseEEEZN11ChatManager9loadChatsERK7QStringE3$_0EE7QFutureIT_EP13QNetworkReplyT0_iRKSD_ENUlvE_C1EOSK_
FNA:1,5,_ZZN11BaseManager22handleReplyWithTimeoutI5QListINSt3__110shared_ptrI8ChatBaseEEEZN11ChatManager9loadChatsERK7QStringE3$_0EE7QFutureIT_EP13QNetworkReplyT0_iRKSD_ENUlvE_C2EOSK_
FNA:1,10,_ZZN11BaseManager22handleReplyWithTimeoutI5QListINSt3__110shared_ptrI8ChatBaseEEEZN11ChatManager9loadChatsERK7QStringE3$_0EE7QFutureIT_EP13QNetworkReplyT0_iRKSD_ENUlvE_D1Ev
FNA:1,10,_ZZN11BaseManager22handleReplyWithTimeoutI5QListINSt3__110shared_ptrI8ChatBaseEEEZN11ChatManager9loadChatsERK7QStringE3$_0EE7QFutureIT_EP13QNetworkReplyT0_iRKSD_ENUlvE_D2Ev
FNA:1,0,_ZZN11BaseManager22handleReplyWithTimeoutINSt3__110shared_ptrI8ChatBaseEEZN11ChatManager17createPrivateChatERK7QStringiE3$_0EE7QFutureIT_EP13QNetworkReplyT0_iRKSB_ENKUlvE_clEv
FNA:1,5,_ZZN11BaseManager22handleReplyWithTimeoutINSt3__110shared_ptrI8ChatBaseEEZN11ChatManager17createPrivateChatERK7QStringiE3$_0EE7QFutureIT_EP13QNetworkReplyT0_iRKSB_ENUlvE_C1EOSI_
FNA:1,5,_ZZN11BaseManager22handleReplyWithTimeoutINSt3__110shared_ptrI8ChatBaseEEZN11ChatManager17createPrivateChatERK7QStringiE3$_0EE7QFutureIT_EP13QNetworkReplyT0_iRKSB_ENUlvE_C2EOSI_
FNA:1,10,_ZZN11BaseManager22handleReplyWithTimeoutINSt3__110shared_ptrI8ChatBaseEEZN11ChatManager17createPrivateChatERK7QStringiE3$_0EE7QFutureIT_EP13QNetworkReplyT0_iRKSB_ENUlvE_D1Ev
FNA:1,10,_ZZN11BaseManager22handleReplyWithTimeoutINSt3__110shared_ptrI8ChatBaseEEZN11ChatManager17createPrivateChatERK7QStringiE3$_0EE7QFutureIT_EP13QNetworkReplyT0_iRKSB_ENUlvE_D2Ev
FNA:1,0,_ZZN11BaseManager22handleReplyWithTimeoutINSt3__110shared_ptrI8ChatBaseEEZN11ChatManager8loadChatERK7QStringiE3$_0EE7QFutureIT_EP13QNetworkReplyT0_iRKSB_ENKUlvE_clEv
FNA:1,4,_ZZN11BaseManager22handleReplyWithTimeoutINSt3__110shared_ptrI8ChatBaseEEZN11ChatManager8loadChatERK7QStringiE3$_0EE7QFutureIT_EP13QNetworkReplyT0_iRKSB_ENUlvE_C1EOSI_
FNA:1,4,_ZZN11BaseManager22handleReplyWithTimeoutINSt3__110shared_ptrI8ChatBaseEEZN11ChatManager8loadChatERK7QStringiE3$_0EE7QFutureIT_EP13QNetworkReplyT0_iRKSB_ENUlvE_C2EOSI_
FNA:1,8,_ZZN11BaseManager22handleReplyWithTimeoutINSt3__110shared_ptrI8ChatBaseEEZN11ChatManager8loadChatERK7QStringiE3$_0EE7QFutureIT_EP13QNetworkReplyT0_iRKSB_ENUlvE_D1Ev
FNA:1,8,_ZZN11BaseManager22handleReplyWithTimeoutINSt3__110shared_ptrI8ChatBaseEEZN11ChatManager8loadChatERK7QStringiE3$_0EE7QFutureIT_EP13QNetworkReplyT0_iRKSB_ENUlvE_D2Ev
FNA:1,4,_ZZN11BaseManager22handleReplyWithTimeoutINSt3__18optionalI4UserEEZN11UserManager7getUserEiE3$_0EE7QFutureIT_EP13QNetworkReplyT0_iRKS8_ENKUlvE_clEv
FNA:1,8,_ZZN11BaseManager22handleReplyWithTimeoutINSt3__18optionalI4UserEEZN11UserManager7getUserEiE3$_0EE7QFutureIT_EP13QNetworkReplyT0_iRKS8_ENUlvE_C1EOSF_
FNA:1,8,_ZZN11BaseManager22handleReplyWithTimeoutINSt3__18optionalI4UserEEZN11UserManager7getUserEiE3$_0EE7QFutureIT_EP13QNetworkReplyT0_iRKS8_ENUlvE_C2EOSF_
FNA:1,16,_ZZN11BaseManager22handleReplyWithTimeoutINSt3__18optionalI4UserEEZN11UserManager7getUserEiE3$_0EE7QFutureIT_EP13QNetworkReplyT0_iRKS8_ENUlvE_D1Ev
FNA:1,16,_ZZN11BaseManager22handleReplyWithTimeoutINSt3__18optionalI4UserEEZN11UserManager7getUserEiE3$_0EE7QFutureIT_EP13QNetworkReplyT0_iRKS8_ENUlvE_D2Ev
FNL:2,46,64
FNA:2,7,_ZZN11BaseManager22handleReplyWithTimeoutI5QListI4UserEZN11UserManager14findUsersByTagERK7QStringE3$_0EE7QFutureIT_EP13QNetworkReplyT0_iRKSA_ENUlvE0_C1EOSH_
FNA:2,7,_ZZN11BaseManager22handleReplyWithTimeoutI5QListI4UserEZN11UserManager14findUsersByTagERK7QStringE3$_0EE7QFutureIT_EP13QNetworkReplyT0_iRKSA_ENUlvE0_C2EOSH_
FNA:2,9,_ZZN11BaseManager22handleReplyWithTimeoutI5QListI4UserEZN11UserManager14findUsersByTagERK7QStringE3$_0EE7QFutureIT_EP13QNetworkReplyT0_iRKSA_ENUlvE0_D1Ev
FNA:2,9,_ZZN11BaseManager22handleReplyWithTimeoutI5QListI4UserEZN11UserManager14findUsersByTagERK7QStringE3$_0EE7QFutureIT_EP13QNetworkReplyT0_iRKSA_ENUlvE0_D2Ev
FNA:2,3,_ZZN11BaseManager22handleReplyWithTimeoutI5QListI4UserEZN11UserManager14findUsersByTagERK7QStringE3$_0EE7QFutureIT_EP13QNetworkReplyT0_iRKSA_ENUlvE0_clEv
FNA:2,5,_ZZN11BaseManager22handleReplyWithTimeoutI5QListI7MessageEZN14MessageManager15getChatMessagesERK7QStringiiiE3$_0EE7QFutureIT_EP13QNetworkReplyT0_iRKSA_ENUlvE0_C1EOSH_
FNA:2,5,_ZZN11BaseManager22handleReplyWithTimeoutI5QListI7MessageEZN14MessageManager15getChatMessagesERK7QStringiiiE3$_0EE7QFutureIT_EP13QNetworkReplyT0_iRKSA_ENUlvE0_C2EOSH_
FNA:2,9,_ZZN11BaseManager22handleReplyWithTimeoutI5QListI7MessageEZN14MessageManager15getChatMessagesERK7QStringiiiE3$_0EE7QFutureIT_EP13QNetworkReplyT0_iRKSA_ENUlvE0_D1Ev
FNA:2,9,_ZZN11BaseManager22handleReplyWithTimeoutI5QListI7MessageEZN14MessageManager15getChatMessagesERK7QStringiiiE3$_0EE7QFutureIT_EP13QNetworkReplyT0_iRKSA_ENUlvE0_D2Ev
FNA:2,3,_ZZN11BaseManager22handleReplyWithTimeoutI5QListI7MessageEZN14MessageManager15getChatMessagesERK7QStringiiiE3$_0EE7QFutureIT_EP13QNetworkReplyT0_iRKSA_ENUlvE0_clEv
FNA:2,5,_ZZN11BaseManager22handleReplyWithTimeoutI5QListINSt3__110shared_ptrI8ChatBaseEEEZN11ChatManager9loadChatsERK7QStringE3$_0EE7QFutureIT_EP13QNetworkReplyT0_iRKSD_ENUlvE0_C1EOSK_
FNA:2,5,_ZZN11BaseManager22handleReplyWithTimeoutI5QListINSt3__110shared_ptrI8ChatBaseEEEZN11ChatManager9loadChatsERK7QStringE3$_0EE7QFutureIT_EP13QNetworkReplyT0_iRKSD_ENUlvE0_C2EOSK_
FNA:2,9,_ZZN11BaseManager22handleReplyWithTimeoutI5QListINSt3__110shared_ptrI8ChatBaseEEEZN11ChatManager9loadChatsERK7QStringE3$_0EE7QFutureIT_EP13QNetworkReplyT0_iRKSD_ENUlvE0_D1Ev
FNA:2,9,_ZZN11BaseManager22handleReplyWithTimeoutI5QListINSt3__110shared_ptrI8ChatBaseEEEZN11ChatManager9loadChatsERK7QStringE3$_0EE7QFutureIT_EP13QNetworkReplyT0_iRKSD_ENUlvE0_D2Ev
FNA:2,3,_ZZN11BaseManager22handleReplyWithTimeoutI5QListINSt3__110shared_ptrI8ChatBaseEEEZN11ChatManager9loadChatsERK7QStringE3$_0EE7QFutureIT_EP13QNetworkReplyT0_iRKSD_ENUlvE0_clEv
FNA:2,5,_ZZN11BaseManager22handleReplyWithTimeoutINSt3__110shared_ptrI8ChatBaseEEZN11ChatManager17createPrivateChatERK7QStringiE3$_0EE7QFutureIT_EP13QNetworkReplyT0_iRKSB_ENUlvE0_C1EOSI_
FNA:2,5,_ZZN11BaseManager22handleReplyWithTimeoutINSt3__110shared_ptrI8ChatBaseEEZN11ChatManager17createPrivateChatERK7QStringiE3$_0EE7QFutureIT_EP13QNetworkReplyT0_iRKSB_ENUlvE0_C2EOSI_
FNA:2,9,_ZZN11BaseManager22handleReplyWithTimeoutINSt3__110shared_ptrI8ChatBaseEEZN11ChatManager17createPrivateChatERK7QStringiE3$_0EE7QFutureIT_EP13QNetworkReplyT0_iRKSB_ENUlvE0_D1Ev
FNA:2,9,_ZZN11BaseManager22handleReplyWithTimeoutINSt3__110shared_ptrI8ChatBaseEEZN11ChatManager17createPrivateChatERK7QStringiE3$_0EE7QFutureIT_EP13QNetworkReplyT0_iRKSB_ENUlvE0_D2Ev
FNA:2,4,_ZZN11BaseManager22handleReplyWithTimeoutINSt3__110shared_ptrI8ChatBaseEEZN11ChatManager17createPrivateChatERK7QStringiE3$_0EE7QFutureIT_EP13QNetworkReplyT0_iRKSB_ENUlvE0_clEv
FNA:2,4,_ZZN11BaseManager22handleReplyWithTimeoutINSt3__110shared_ptrI8ChatBaseEEZN11ChatManager8loadChatERK7QStringiE3$_0EE7QFutureIT_EP13QNetworkReplyT0_iRKSB_ENUlvE0_C1EOSI_
FNA:2,4,_ZZN11BaseManager22handleReplyWithTimeoutINSt3__110shared_ptrI8ChatBaseEEZN11ChatManager8loadChatERK7QStringiE3$_0EE7QFutureIT_EP13QNetworkReplyT0_iRKSB_ENUlvE0_C2EOSI_
FNA:2,7,_ZZN11BaseManager22handleReplyWithTimeoutINSt3__110shared_ptrI8ChatBaseEEZN11ChatManager8loadChatERK7QStringiE3$_0EE7QFutureIT_EP13QNetworkReplyT0_iRKSB_ENUlvE0_D1Ev
FNA:2,7,_ZZN11BaseManager22handleReplyWithTimeoutINSt3__110shared_ptrI8ChatBaseEEZN11ChatManager8loadChatERK7QStringiE3$_0EE7QFutureIT_EP13QNetworkReplyT0_iRKSB_ENUlvE0_D2Ev
FNA:2,3,_ZZN11BaseManager22handleReplyWithTimeoutINSt3__110shared_ptrI8ChatBaseEEZN11ChatManager8loadChatERK7QStringiE3$_0EE7QFutureIT_EP13QNetworkReplyT0_iRKSB_ENUlvE0_clEv
FNA:2,8,_ZZN11BaseManager22handleReplyWithTimeoutINSt3__18optionalI4UserEEZN11UserManager7getUserEiE3$_0EE7QFutureIT_EP13QNetworkReplyT0_iRKS8_ENUlvE0_C1EOSF_
FNA:2,8,_ZZN11BaseManager22handleReplyWithTimeoutINSt3__18optionalI4UserEEZN11UserManager7getUserEiE3$_0EE7QFutureIT_EP13QNetworkReplyT0_iRKS8_ENUlvE0_C2EOSF_
FNA:2,11,_ZZN11BaseManager22handleReplyWithTimeoutINSt3__18optionalI4UserEEZN11UserManager7getUserEiE3$_0EE7QFutureIT_EP13QNetworkReplyT0_iRKS8_ENUlvE0_D1Ev
FNA:2,11,_ZZN11BaseManager22handleReplyWithTimeoutINSt3__18optionalI4UserEEZN11UserManager7getUserEiE3$_0EE7QFutureIT_EP13QNetworkReplyT0_iRKS8_ENUlvE0_D2Ev
FNA:2,4,_ZZN11BaseManager22handleReplyWithTimeoutINSt3__18optionalI4UserEEZN11UserManager7getUserEiE3$_0EE7QFutureIT_EP13QNetworkReplyT0_iRKS8_ENUlvE0_clEv
FNL:3,66,71
FNA:3,15,_ZN11BaseManager26handleReplyWithTimeoutVoidEP13QNetworkReplyNSt3__18functionIFvS1_EEEi
FNL:4,73,83
FNA:4,0,_ZZN11BaseManager26handleReplyWithTimeoutVoidEP13QNetworkReplyNSt3__18functionIFvS1_EEEiENKUlvE_clEv
FNA:4,15,_ZZN11BaseManager26handleReplyWithTimeoutVoidEP13QNetworkReplyNSt3__18functionIFvS1_EEEiENUlvE_C1EOS6_
FNA:4,15,_ZZN11BaseManager26handleReplyWithTimeoutVoidEP13QNetworkReplyNSt3__18functionIFvS1_EEEiENUlvE_C2EOS6_
FNA:4,30,_ZZN11BaseManager26handleReplyWithTimeoutVoidEP13QNetworkReplyNSt3__18functionIFvS1_EEEiENUlvE_D1Ev
FNA:4,30,_ZZN11BaseManager26handleReplyWithTimeoutVoidEP13QNetworkReplyNSt3__18functionIFvS1_EEEiENUlvE_D2Ev
FNL:5,84,97
FNA:5,3,_ZZN11BaseManager26handleReplyWithTimeoutVoidEP13QNetworkReplyNSt3__18functionIFvS1_EEEiENKUlvE0_clEv
FNA:5,15,_ZZN11BaseManager26handleReplyWithTimeoutVoidEP13QNetworkReplyNSt3__18functionIFvS1_EEEiENUlvE0_C1EOS6_
FNA:5,15,_ZZN11BaseManager26handleReplyWithTimeoutVoidEP13QNetworkReplyNSt3__18functionIFvS1_EEEiENUlvE0_C2EOS6_
FNA:5,30,_ZZN11BaseManager26handleReplyWithTimeoutVoidEP13QNetworkReplyNSt3__18functionIFvS1_EEEiENUlvE0_D1Ev
FNA:5,30,_ZZN11BaseManager26handleReplyWithTimeoutVoidEP13QNetworkReplyNSt3__18functionIFvS1_EEEiENUlvE0_D2Ev
FNF:6
FNH:6
DA:24,34
DA:28,34
DA:29,34
DA:30,34
DA:32,52
DA:33,10
DA:35,10
DA:36,0
DA:37,0
DA:38,0
DA:39,0
DA:40,0
DA:41,10
DA:43,60
DA:45,34
DA:46,62
DA:47,20
DA:48,0
DA:49,0
DA:52,20
DA:53,7
DA:54,7
DA:55,7
DA:56,13
DA:59,20
DA:60,20
DA:61,20
DA:63,34
DA:64,34
DA:66,15
DA:69,15
DA:70,15
DA:71,15
DA:73,15
DA:74,0
DA:76,0
DA:77,0
DA:78,0
DA:79,0
DA:80,0
DA:81,0
DA:83,15
DA:84,18
DA:85,3
DA:86,0
DA:87,0
DA:90,3
DA:92,3
DA:93,3
DA:94,3
DA:96,15
DA:97,15
LF:52
LH:36
end_of_record
TN:
SF:/Users/roma/QtProjects/Chat/Frontend/src/datainputservice.cpp
FNL:0,13,16
FNA:0,27,_ZN16DataInputServiceL16isControlOrSpaceE5QChar
FNL:1,149,164
FNA:1,7,_ZN16DataInputService21passwordValidDetailedERK7QStringRK6Config
FNL:2,166,198
FNA:2,10,_ZN16DataInputService16tagValidDetailedERK7QStringRK6Config
FNL:3,200,214
FNA:3,5,_ZN16DataInputService29validateRegistrationUserInputERK13SignUpRequestRK6Config
FNL:4,216,224
FNA:4,0,_ZN16DataInputService22validateLoginUserInputERK12LogInRequestRK6Config
FNL:5,26,41
FNA:5,7,_ZN16DataInputService11loadDomainsERK6Config
FNL:6,43,47
FNA:6,7,_ZN16DataInputServiceL13isValidDomainERK7QStringRK6Config
FNL:7,49,83
FNA:7,14,_ZN16DataInputService17nameValidDetailedERK7QStringRK6Config
FNL:8,85,147
FNA:8,12,_ZN16DataInputService18emailValidDetailedERK7QStringRK6Config
FNF:9
FNH:8
DA:13,27
DA:14,27
DA:15,27
DA:16,27
DA:26,7
DA:27,7
DA:28,7
DA:31,0
DA:32,0
DA:33,0
DA:34,0
DA:35,0
DA:36,0
DA:37,0
DA:38,0
DA:39,0
DA:41,7
DA:43,7
DA:44,7
DA:45,7
DA:46,7
DA:47,7
DA:49,14
DA:50,14
DA:53,11
DA:54,85
DA:55,74
DA:58,73
DA:59,66
DA:60,66
DA:61,74
DA:63,10
DA:64,10
DA:66,67
DA:67,58
DA:69,58
DA:70,58
DA:71,59
DA:72,1
DA:73,1
DA:75,57
DA:76,0
DA:77,0
DA:80,58
DA:82,8
DA:83,14
DA:85,12
DA:86,12
DA:88,12
DA:89,12
DA:91,10
DA:92,10
DA:94,10
DA:95,9
DA:96,9
DA:98,8
DA:99,8
DA:100,7
DA:101,0
DA:103,45
DA:104,38
DA:105,38
DA:107,38
DA:108,0
DA:109,0
DA:110,0
DA:113,38
DA:114,38
DA:116,0
DA:117,38
DA:118,7
DA:120,8
DA:122,7
DA:146,6
DA:147,12
DA:149,7
DA:150,7
DA:151,7
DA:152,5
DA:154,5
DA:155,32
DA:156,27
DA:157,27
DA:158,25
DA:159,3
DA:161,1
DA:162,27
DA:163,2
DA:164,7
DA:166,10
DA:167,10
DA:168,9
DA:169,9
DA:171,9
DA:172,9
DA:173,2
DA:175,7
DA:176,57
DA:177,50
DA:178,3
DA:179,3
DA:181,47
DA:182,39
DA:183,39
DA:185,8
DA:186,5
DA:187,4
DA:188,4
DA:190,3
DA:191,2
DA:192,2
DA:195,1
DA:196,50
DA:197,5
DA:198,10
DA:200,5
DA:201,5
DA:202,5
DA:204,4
DA:205,4
DA:207,3
DA:208,3
DA:210,2
DA:211,2
DA:213,1
DA:214,5
DA:216,0
DA:217,0
DA:218,0
DA:220,0
DA:221,0
DA:223,0
DA:224,0
LF:133
LH:110
end_of_record
TN:
SF:/Users/roma/QtProjects/Chat/Frontend/src/delegators/ChatItemDelegate.cpp
FNL:0,114,121
FNA:0,0,_ZNK16ChatItemDelegate8sizeHintERK20QStyleOptionViewItemRK11QModelIndex
FNL:1,12,22
FNA:1,0,_ZNK16ChatItemDelegate19drawBackgroundStateEP8QPainterRK5QRectRK20QStyleOptionViewItem
FNL:2,24,32
FNA:2,0,_ZNK16ChatItemDelegate15extractChatDataERK11QModelIndex
FNL:3,3,10
FNA:3,0,_ZNK16ChatItemDelegate5paintEP8QPainterRK20QStyleOptionViewItemRK11QModelIndex
FNL:4,34,46
FNA:4,0,_ZNK16ChatItemDelegate7drawAllEP8QPainterRK20QStyleOptionViewItemRK12ChatDrawData
FNL:5,48,56
FNA:5,0,_ZNK16ChatItemDelegate10drawAvatarEP8QPainterRK5QRectRK7QPixmap
FNL:6,58,64
FNA:6,0,_ZNK16ChatItemDelegate14drawNameOfChatEP8QPainterRK5QRectRK7QString
FNL:7,66,72
FNA:7,0,_ZNK16ChatItemDelegate15drawLastMessageEP8QPainterRK5QRectRK7QString
FNL:8,74,81
FNA:8,0,_ZNK16ChatItemDelegate13drawTimestampEP8QPainterRK5QRectRK9QDateTime
FNL:9,83,96
FNA:9,0,_ZNK16ChatItemDelegate10drawUnreadEP8QPainterRK5QRecti
FNL:10,98,112
FNA:10,0,_ZNK16ChatItemDelegate19refactorLastMessageERK7QString
FNF:11
FNH:0
DA:3,0
DA:6,0
DA:7,0
DA:8,0
DA:9,0
DA:10,0
DA:12,0
DA:15,0
DA:16,0
DA:17,0
DA:18,0
DA:19,0
DA:20,0
DA:21,0
DA:22,0
DA:24,0
DA:25,0
DA:26,0
DA:27,0
DA:28,0
DA:29,0
DA:30,0
DA:31,0
DA:32,0
DA:34,0
DA:37,0
DA:38,0
DA:40,0
DA:41,0
DA:42,0
DA:43,0
DA:44,0
DA:46,0
DA:48,0
DA:51,0
DA:52,0
DA:53,0
DA:55,0
DA:56,0
DA:58,0
DA:61,0
DA:62,0
DA:63,0
DA:64,0
DA:66,0
DA:69,0
DA:70,0
DA:71,0
DA:72,0
DA:74,0
DA:77,0
DA:78,0
DA:79,0
DA:80,0
DA:81,0
DA:83,0
DA:84,0
DA:86,0
DA:87,0
DA:89,0
DA:90,0
DA:91,0
DA:92,0
DA:93,0
DA:94,0
DA:95,0
DA:96,0
DA:98,0
DA:99,0
DA:100,0
DA:101,0
DA:104,0
DA:105,0
DA:107,0
DA:108,0
DA:111,0
DA:112,0
DA:114,0
DA:116,0
DA:117,0
DA:118,0
DA:119,0
DA:120,0
DA:121,0
LF:84
LH:0
end_of_record
TN:
SF:/Users/roma/QtProjects/Chat/Frontend/src/delegators/UserDelegate.cpp
FNL:0,12,18
FNA:0,0,_ZNK12UserDelegate8sizeHintERK20QStyleOptionViewItemRK11QModelIndex
FNL:1,20,26
FNA:1,0,_ZNK12UserDelegate10drawAvatarEP8QPainterRK5QRectRK7QPixmap
FNL:2,28,32
FNA:2,0,_ZNK12UserDelegate8drawNameEP8QPainterRK5QRectRK7QString
FNL:3,3,10
FNA:3,0,_ZNK12UserDelegate5paintEP8QPainterRK20QStyleOptionViewItemRK11QModelIndex
FNL:4,34,38
FNA:4,0,_ZNK12UserDelegate7drawTagEP8QPainterRK5QRectRK7QString
FNL:5,40,50
FNA:5,0,_ZNK12UserDelegate19drawBackgroundStateEP8QPainterRK5QRectRK20QStyleOptionViewItem
FNL:6,52,58
FNA:6,0,_ZNK12UserDelegate18extractMessageDataERK11QModelIndex
FNL:7,60,68
FNA:7,0,_ZNK12UserDelegate7drawAllEP8QPainterRK20QStyleOptionViewItemRK12UserDrawData
FNF:8
FNH:0
DA:3,0
DA:6,0
DA:7,0
DA:8,0
DA:9,0
DA:10,0
DA:12,0
DA:13,0
DA:14,0
DA:15,0
DA:16,0
DA:17,0
DA:18,0
DA:20,0
DA:21,0
DA:22,0
DA:23,0
DA:25,0
DA:26,0
DA:28,0
DA:29,0
DA:30,0
DA:31,0
DA:32,0
DA:34,0
DA:35,0
DA:36,0
DA:37,0
DA:38,0
DA:40,0
DA:43,0
DA:44,0
DA:45,0
DA:46,0
DA:47,0
DA:48,0
DA:49,0
DA:50,0
DA:52,0
DA:53,0
DA:54,0
DA:55,0
DA:56,0
DA:57,0
DA:58,0
DA:60,0
DA:63,0
DA:64,0
DA:65,0
DA:66,0
DA:67,0
DA:68,0
LF:52
LH:0
end_of_record
TN:
SF:/Users/roma/QtProjects/Chat/Frontend/src/delegators/messagedelegate.cpp
FNL:0,113,128
FNA:0,0,_ZNK15MessageDelegate13drawTimestampEP8QPainterRK5QRectRK7QStringb
FNL:1,130,141
FNA:1,0,_ZNK15MessageDelegate18extractMessageDataERK11QModelIndex
FNL:2,143,154
FNA:2,0,_ZNK15MessageDelegate7drawAllEP8QPainterRK20QStyleOptionViewItemRK15MessageDrawDatab
FNL:3,156,185
FNA:3,0,_ZNK15MessageDelegate10drawStatusEP8QPainterRK5QRectRK15MessageDrawDatab
FNL:4,22,48
FNA:4,0,_ZNK15MessageDelegate8sizeHintERK20QStyleOptionViewItemRK11QModelIndex
FNL:5,50,57
FNA:5,0,_ZNK15MessageDelegate19drawBackgroundStateEP8QPainterRK5QRectRK20QStyleOptionViewItemb
FNL:6,59,74
FNA:6,0,_ZNK15MessageDelegate10drawAvatarEP8QPainterRK5QRectRK7QPixmapb
FNL:7,7,20
FNA:7,0,_ZNK15MessageDelegate5paintEP8QPainterRK20QStyleOptionViewItemRK11QModelIndex
FNL:8,76,95
FNA:8,0,_ZNK15MessageDelegate12drawUsernameEP8QPainterRK5QRectRK7QStringb
FNL:9,97,111
FNA:9,0,_ZNK15MessageDelegate8drawTextEP8QPainterRK5QRectRK7QStringb
FNF:10
FNH:0
DA:7,0
DA:10,0
DA:11,0
DA:12,0
DA:15,0
DA:16,0
DA:17,0
DA:18,0
DA:19,0
DA:20,0
DA:22,0
DA:24,0
DA:25,0
DA:26,0
DA:27,0
DA:29,0
DA:30,0
DA:31,0
DA:33,0
DA:35,0
DA:36,0
DA:37,0
DA:38,0
DA:39,0
DA:40,0
DA:42,0
DA:43,0
DA:45,0
DA:46,0
DA:47,0
DA:48,0
DA:50,0
DA:57,0
DA:59,0
DA:63,0
DA:64,0
DA:66,0
DA:67,0
DA:68,0
DA:69,0
DA:72,0
DA:73,0
DA:74,0
DA:76,0
DA:80,0
DA:81,0
DA:82,0
DA:83,0
DA:85,0
DA:86,0
DA:87,0
DA:88,0
DA:90,0
DA:91,0
DA:93,0
DA:94,0
DA:95,0
DA:97,0
DA:101,0
DA:102,0
DA:104,0
DA:105,0
DA:106,0
DA:108,0
DA:110,0
DA:111,0
DA:113,0
DA:117,0
DA:118,0
DA:120,0
DA:121,0
DA:123,0
DA:125,0
DA:126,0
DA:127,0
DA:128,0
DA:130,0
DA:131,0
DA:132,0
DA:133,0
DA:134,0
DA:135,0
DA:136,0
DA:137,0
DA:138,0
DA:139,0
DA:140,0
DA:141,0
DA:143,0
DA:147,0
DA:148,0
DA:149,0
DA:150,0
DA:151,0
DA:152,0
DA:153,0
DA:154,0
DA:156,0
DA:160,0
DA:161,0
DA:162,0
DA:164,0
DA:165,0
DA:166,0
DA:167,0
DA:168,0
DA:169,0
DA:172,0
DA:173,0
DA:175,0
DA:177,0
DA:178,0
DA:179,0
DA:181,0
DA:182,0
DA:183,0
DA:184,0
DA:185,0
LF:118
LH:0
end_of_record
TN:
SF:/Users/roma/QtProjects/Chat/Frontend/src/managers/BaseManager.cpp
FNL:0,3,7
FNA:0,0,_ZN11BaseManagerC1EP21INetworkAccessManagerRK4QUrliP7QObject
FNA:0,68,_ZN11BaseManagerC2EP21INetworkAccessManagerRK4QUrliP7QObject
FNL:1,9,9
FNA:1,0,_ZN11BaseManagerD0Ev
FNA:1,0,_ZN11BaseManagerD1Ev
FNA:1,68,_ZN11BaseManagerD2Ev
FNF:2
FNH:2
DA:3,68
DA:7,68
DA:9,68
LF:3
LH:3
end_of_record
